; ModuleID = 'source-C-CXX/32/170.c'
source_filename = "source-C-CXX/32/170.c"
target datalayout = "e-m:e-p270:32:32-p271:32:32-p272:64:64-i64:64-f80:128-n8:16:32:64-S128"
target triple = "x86_64-pc-linux-gnu"

; Function Attrs: nounwind sspstrong uwtable
define dso_local i32 @main() local_unnamed_addr #0 {
  %1 = alloca [100 x i8], align 16
  %2 = alloca [255 x i8], align 16
  %3 = getelementptr inbounds [100 x i8], [100 x i8]* %1, i64 0, i64 0
  call void @llvm.lifetime.start.p0i8(i64 100, i8* nonnull %3) #5
  %4 = call i32 (i8*, ...) bitcast (i32 (...)* @gets to i32 (i8*, ...)*)(i8* nonnull %3) #5
  %5 = call i64 @strtol(i8* nocapture nonnull %3, i8** null, i32 10) #5
  %6 = trunc i64 %5 to i32
  %7 = getelementptr inbounds [255 x i8], [255 x i8]* %2, i64 0, i64 0
  %8 = icmp sgt i32 %6, 0
  br i1 %8, label %9, label %38

9:                                                ; preds = %0, %34
  %10 = phi i32 [ %36, %34 ], [ 0, %0 ]
  call void @llvm.lifetime.start.p0i8(i64 255, i8* nonnull %7) #5
  %11 = call i32 (i8*, ...) bitcast (i32 (...)* @gets to i32 (i8*, ...)*)(i8* nonnull %7) #5
  br label %12

12:                                               ; preds = %22, %9
  %13 = phi i64 [ %24, %22 ], [ 0, %9 ]
  %14 = getelementptr inbounds [255 x i8], [255 x i8]* %2, i64 0, i64 %13
  %15 = load i8, i8* %14, align 1, !tbaa !5
  switch i8 %15, label %21 [
    i8 0, label %16
    i8 65, label %22
    i8 84, label %19
    i8 67, label %20
  ]

16:                                               ; preds = %12
  %17 = load i8, i8* %7, align 16, !tbaa !5
  %18 = icmp eq i8 %17, 0
  br i1 %18, label %34, label %25

19:                                               ; preds = %12
  br label %22

20:                                               ; preds = %12
  br label %22

21:                                               ; preds = %12
  br label %22

22:                                               ; preds = %12, %20, %21, %19
  %23 = phi i8 [ 71, %20 ], [ 67, %21 ], [ 65, %19 ], [ 84, %12 ]
  store i8 %23, i8* %14, align 1, !tbaa !5
  %24 = add nuw i64 %13, 1
  br label %12, !llvm.loop !8

25:                                               ; preds = %16, %25
  %26 = phi i64 [ %30, %25 ], [ 0, %16 ]
  %27 = phi i8 [ %32, %25 ], [ %17, %16 ]
  %28 = sext i8 %27 to i32
  %29 = call i32 @putchar(i32 %28)
  %30 = add nuw i64 %26, 1
  %31 = getelementptr inbounds [255 x i8], [255 x i8]* %2, i64 0, i64 %30
  %32 = load i8, i8* %31, align 1, !tbaa !5
  %33 = icmp eq i8 %32, 0
  br i1 %33, label %34, label %25, !llvm.loop !10

34:                                               ; preds = %25, %16
  %35 = call i32 @putchar(i32 10)
  call void @llvm.lifetime.end.p0i8(i64 255, i8* nonnull %7) #5
  %36 = add nuw nsw i32 %10, 1
  %37 = icmp eq i32 %36, %6
  br i1 %37, label %38, label %9, !llvm.loop !11

38:                                               ; preds = %34, %0
  call void @llvm.lifetime.end.p0i8(i64 100, i8* nonnull %3) #5
  ret i32 0
}

; Function Attrs: argmemonly mustprogress nofree nosync nounwind willreturn
declare void @llvm.lifetime.start.p0i8(i64 immarg, i8* nocapture) #1

declare i32 @gets(...) local_unnamed_addr #2

; Function Attrs: argmemonly mustprogress nofree nosync nounwind willreturn
declare void @llvm.lifetime.end.p0i8(i64 immarg, i8* nocapture) #1

; Function Attrs: mustprogress nofree nounwind willreturn
declare i64 @strtol(i8* readonly, i8** nocapture, i32) local_unnamed_addr #3

; Function Attrs: nofree nounwind
declare noundef i32 @putchar(i32 noundef) local_unnamed_addr #4


!llvm.module.flags = !{!0, !1, !2, !3}
!llvm.ident = !{!4}

!0 = !{i32 1, !"wchar_size", i32 4}
!1 = !{i32 7, !"PIC Level", i32 2}
!2 = !{i32 7, !"PIE Level", i32 2}
!3 = !{i32 7, !"uwtable", i32 1}
!4 = !{!"clang version 13.0.0"}
!5 = !{!6, !6, i64 0}
!6 = !{!"omnipotent char", !7, i64 0}
!7 = !{!"Simple C/C++ TBAA"}
!8 = distinct !{!8, !9}
!9 = !{!"llvm.loop.mustprogress"}
!10 = distinct !{!10, !9}
!11 = distinct !{!11, !9}
